target datalayout = "e-m:e-p270:32:32-p271:32:32-p272:64:64-i64:64-i128:128-f80:128-n8:16:32:64-S128"
target triple = "x86_64-unknown-linux-gnu"

; Function Attrs: mustprogress uwtable
define dso_local noundef zeroext i1 @_ZN9struct_pb8internal14deserialize_toIN22protobuf_test_messages6proto320NullHypothesisProto3EEEbRT_PKcmRNS_13UnknownFieldsE(ptr noundef nonnull align 1 dereferenceable(1) %t, ptr noundef %data, i64 noundef %size, ptr noundef nonnull align 8 dereferenceable(24) %unknown_fields) #0 {
entry:
  %retval.i = alloca i1, align 1
  %data.addr.i8 = alloca ptr, align 8
  %pos_.addr.i = alloca ptr, align 8
  %size_.addr.i = alloca i64, align 8
  %v.addr.i9 = alloca ptr, align 8
  %data_.i = alloca ptr, align 8
  %max_varint_length.i = alloca i8, align 1
  %val.i = alloca i64, align 8
  %b.i = alloca i64, align 8
  %shift.i = alloca i32, align 4
  %data.addr.i4 = alloca ptr, align 8
  %pos.addr.i5 = alloca ptr, align 8
  %size.addr.i6 = alloca i64, align 8
  %v.addr.i = alloca ptr, align 8
  %data.addr.i = alloca ptr, align 8
  %pos.addr.i = alloca ptr, align 8
  %size.addr.i = alloca i64, align 8
  %tag.addr.i = alloca ptr, align 8
  %retval = alloca i1, align 1
  %t.addr = alloca ptr, align 8
  %data.addr = alloca ptr, align 8
  %size.addr = alloca i64, align 8
  %unknown_fields.addr = alloca ptr, align 8
  %pos = alloca i64, align 8
  %ok = alloca i8, align 1
  %tag = alloca i64, align 8
  store ptr %t, ptr %t.addr, align 8
  store ptr %data, ptr %data.addr, align 8
  store i64 %size, ptr %size.addr, align 8
  store ptr %unknown_fields, ptr %unknown_fields.addr, align 8
  store i64 0, ptr %pos, align 8
  store i8 0, ptr %ok, align 1
  br label %while.cond

while.cond:                                       ; preds = %entry
  %0 = load i64, ptr %pos, align 8
  %1 = load i64, ptr %size.addr, align 8
  %cmp = icmp ult i64 %0, %1
  br i1 %cmp, label %while.body, label %while.end

while.body:                                       ; preds = %while.cond
  store i64 0, ptr %tag, align 8
  %2 = load ptr, ptr %data.addr, align 8
  %3 = load i64, ptr %size.addr, align 8
  store ptr %2, ptr %data.addr.i, align 8
  store ptr %pos, ptr %pos.addr.i, align 8
  store i64 %3, ptr %size.addr.i, align 8
  store ptr %tag, ptr %tag.addr.i, align 8
  %4 = load ptr, ptr %data.addr.i, align 8
  %5 = load ptr, ptr %pos.addr.i, align 8
  %6 = load i64, ptr %size.addr.i, align 8
  %7 = load ptr, ptr %tag.addr.i, align 8
  store ptr %4, ptr %data.addr.i4, align 8
  store ptr %5, ptr %pos.addr.i5, align 8
  store i64 %6, ptr %size.addr.i6, align 8
  store ptr %7, ptr %v.addr.i, align 8
  %8 = load ptr, ptr %data.addr.i4, align 8
  %9 = load ptr, ptr %pos.addr.i5, align 8
  %10 = load i64, ptr %size.addr.i6, align 8
  %11 = load ptr, ptr %v.addr.i, align 8
  store ptr %8, ptr %data.addr.i8, align 8
  store ptr %9, ptr %pos_.addr.i, align 8
  store i64 %10, ptr %size_.addr.i, align 8
  store ptr %11, ptr %v.addr.i9, align 8
  %12 = load ptr, ptr %data.addr.i8, align 8
  store ptr %12, ptr %data_.i, align 8
  %13 = load ptr, ptr %pos_.addr.i, align 8
  %14 = load i64, ptr %13, align 8
  %15 = load i64, ptr %size_.addr.i, align 8
  %cmp.i = icmp ult i64 %14, %15
  br i1 %cmp.i, label %land.lhs.true.i, label %if.end.i

land.lhs.true.i:                                  ; preds = %while.body
  %16 = load ptr, ptr %data_.i, align 8
  %17 = load ptr, ptr %pos_.addr.i, align 8
  %18 = load i64, ptr %17, align 8
  %arrayidx.i = getelementptr inbounds i8, ptr %16, i64 %18
  %19 = load i8, ptr %arrayidx.i, align 1
  %conv.i = sext i8 %19 to i64
  %and.i = and i64 %conv.i, 128
  %cmp1.i = icmp eq i64 %and.i, 0
  br i1 %cmp1.i, label %if.then.i, label %if.end.i

if.then.i:                                        ; preds = %land.lhs.true.i
  %20 = load ptr, ptr %data_.i, align 8
  %21 = load ptr, ptr %pos_.addr.i, align 8
  %22 = load i64, ptr %21, align 8
  %arrayidx2.i = getelementptr inbounds i8, ptr %20, i64 %22
  %23 = load i8, ptr %arrayidx2.i, align 1
  %conv3.i = sext i8 %23 to i64
  %24 = load ptr, ptr %v.addr.i9, align 8
  store i64 %conv3.i, ptr %24, align 8
  %25 = load ptr, ptr %pos_.addr.i, align 8
  %26 = load i64, ptr %25, align 8
  %inc.i = add i64 %26, 1
  store i64 %inc.i, ptr %25, align 8
  store i1 true, ptr %retval.i, align 1
  br label %_ZN9struct_pb8internal13decode_varintEPKcRmmS3_.exit

if.end.i:                                         ; preds = %land.lhs.true.i, %while.body
  store i8 10, ptr %max_varint_length.i, align 1
  store i64 0, ptr %val.i, align 8
  %27 = load i64, ptr %size_.addr.i, align 8
  %28 = load ptr, ptr %pos_.addr.i, align 8
  %29 = load i64, ptr %28, align 8
  %sub.i = sub i64 %27, %29
  %cmp4.i = icmp uge i64 %sub.i, 10
  br i1 %cmp4.i, label %if.then5.i, label %if.else.i

if.then5.i:                                       ; preds = %if.end.i
  %30 = load ptr, ptr %data_.i, align 8
  %31 = load ptr, ptr %pos_.addr.i, align 8
  %32 = load i64, ptr %31, align 8
  %inc6.i = add i64 %32, 1
  store i64 %inc6.i, ptr %31, align 8
  %arrayidx7.i = getelementptr inbounds i8, ptr %30, i64 %32
  %33 = load i8, ptr %arrayidx7.i, align 1
  %conv8.i = sext i8 %33 to i64
  store i64 %conv8.i, ptr %b.i, align 8
  %34 = load i64, ptr %b.i, align 8
  %and9.i = and i64 %34, 127
  store i64 %and9.i, ptr %val.i, align 8
  %35 = load i64, ptr %b.i, align 8
  %cmp10.i = icmp sge i64 %35, 0
  br i1 %cmp10.i, label %if.then11.i, label %if.end12.i

if.then11.i:                                      ; preds = %if.then5.i
  br label %do.end.i

if.end12.i:                                       ; preds = %if.then5.i
  %36 = load ptr, ptr %data_.i, align 8
  %37 = load ptr, ptr %pos_.addr.i, align 8
  %38 = load i64, ptr %37, align 8
  %inc13.i = add i64 %38, 1
  store i64 %inc13.i, ptr %37, align 8
  %arrayidx14.i = getelementptr inbounds i8, ptr %36, i64 %38
  %39 = load i8, ptr %arrayidx14.i, align 1
  %conv15.i = sext i8 %39 to i64
  store i64 %conv15.i, ptr %b.i, align 8
  %40 = load i64, ptr %b.i, align 8
  %and16.i = and i64 %40, 127
  %shl.i = shl i64 %and16.i, 7
  %41 = load i64, ptr %val.i, align 8
  %or.i = or i64 %41, %shl.i
  store i64 %or.i, ptr %val.i, align 8
  %42 = load i64, ptr %b.i, align 8
  %cmp17.i = icmp sge i64 %42, 0
  br i1 %cmp17.i, label %if.then18.i, label %if.end19.i

if.then18.i:                                      ; preds = %if.end12.i
  br label %do.end.i

if.end19.i:                                       ; preds = %if.end12.i
  %43 = load ptr, ptr %data_.i, align 8
  %44 = load ptr, ptr %pos_.addr.i, align 8
  %45 = load i64, ptr %44, align 8
  %inc20.i = add i64 %45, 1
  store i64 %inc20.i, ptr %44, align 8
  %arrayidx21.i = getelementptr inbounds i8, ptr %43, i64 %45
  %46 = load i8, ptr %arrayidx21.i, align 1
  %conv22.i = sext i8 %46 to i64
  store i64 %conv22.i, ptr %b.i, align 8
  %47 = load i64, ptr %b.i, align 8
  %and23.i = and i64 %47, 127
  %shl24.i = shl i64 %and23.i, 14
  %48 = load i64, ptr %val.i, align 8
  %or25.i = or i64 %48, %shl24.i
  store i64 %or25.i, ptr %val.i, align 8
  %49 = load i64, ptr %b.i, align 8
  %cmp26.i = icmp sge i64 %49, 0
  br i1 %cmp26.i, label %if.then27.i, label %if.end28.i

if.then27.i:                                      ; preds = %if.end19.i
  br label %do.end.i

if.end28.i:                                       ; preds = %if.end19.i
  %50 = load ptr, ptr %data_.i, align 8
  %51 = load ptr, ptr %pos_.addr.i, align 8
  %52 = load i64, ptr %51, align 8
  %inc29.i = add i64 %52, 1
  store i64 %inc29.i, ptr %51, align 8
  %arrayidx30.i = getelementptr inbounds i8, ptr %50, i64 %52
  %53 = load i8, ptr %arrayidx30.i, align 1
  %conv31.i = sext i8 %53 to i64
  store i64 %conv31.i, ptr %b.i, align 8
  %54 = load i64, ptr %b.i, align 8
  %and32.i = and i64 %54, 127
  %shl33.i = shl i64 %and32.i, 21
  %55 = load i64, ptr %val.i, align 8
  %or34.i = or i64 %55, %shl33.i
  store i64 %or34.i, ptr %val.i, align 8
  %56 = load i64, ptr %b.i, align 8
  %cmp35.i = icmp sge i64 %56, 0
  br i1 %cmp35.i, label %if.then36.i, label %if.end37.i

if.then36.i:                                      ; preds = %if.end28.i
  br label %do.end.i

if.end37.i:                                       ; preds = %if.end28.i
  %57 = load ptr, ptr %data_.i, align 8
  %58 = load ptr, ptr %pos_.addr.i, align 8
  %59 = load i64, ptr %58, align 8
  %inc38.i = add i64 %59, 1
  store i64 %inc38.i, ptr %58, align 8
  %arrayidx39.i = getelementptr inbounds i8, ptr %57, i64 %59
  %60 = load i8, ptr %arrayidx39.i, align 1
  %conv40.i = sext i8 %60 to i64
  store i64 %conv40.i, ptr %b.i, align 8
  %61 = load i64, ptr %b.i, align 8
  %and41.i = and i64 %61, 127
  %shl42.i = shl i64 %and41.i, 28
  %62 = load i64, ptr %val.i, align 8
  %or43.i = or i64 %62, %shl42.i
  store i64 %or43.i, ptr %val.i, align 8
  %63 = load i64, ptr %b.i, align 8
  %cmp44.i = icmp sge i64 %63, 0
  br i1 %cmp44.i, label %if.then45.i, label %if.end46.i

if.then45.i:                                      ; preds = %if.end37.i
  br label %do.end.i

if.end46.i:                                       ; preds = %if.end37.i
  %64 = load ptr, ptr %data_.i, align 8
  %65 = load ptr, ptr %pos_.addr.i, align 8
  %66 = load i64, ptr %65, align 8
  %inc47.i = add i64 %66, 1
  store i64 %inc47.i, ptr %65, align 8
  %arrayidx48.i = getelementptr inbounds i8, ptr %64, i64 %66
  %67 = load i8, ptr %arrayidx48.i, align 1
  %conv49.i = sext i8 %67 to i64
  store i64 %conv49.i, ptr %b.i, align 8
  %68 = load i64, ptr %b.i, align 8
  %and50.i = and i64 %68, 127
  %shl51.i = shl i64 %and50.i, 35
  %69 = load i64, ptr %val.i, align 8
  %or52.i = or i64 %69, %shl51.i
  store i64 %or52.i, ptr %val.i, align 8
  %70 = load i64, ptr %b.i, align 8
  %cmp53.i = icmp sge i64 %70, 0
  br i1 %cmp53.i, label %if.then54.i, label %if.end55.i

if.then54.i:                                      ; preds = %if.end46.i
  br label %do.end.i

if.end55.i:                                       ; preds = %if.end46.i
  %71 = load ptr, ptr %data_.i, align 8
  %72 = load ptr, ptr %pos_.addr.i, align 8
  %73 = load i64, ptr %72, align 8
  %inc56.i = add i64 %73, 1
  store i64 %inc56.i, ptr %72, align 8
  %arrayidx57.i = getelementptr inbounds i8, ptr %71, i64 %73
  %74 = load i8, ptr %arrayidx57.i, align 1
  %conv58.i = sext i8 %74 to i64
  store i64 %conv58.i, ptr %b.i, align 8
  %75 = load i64, ptr %b.i, align 8
  %and59.i = and i64 %75, 127
  %shl60.i = shl i64 %and59.i, 42
  %76 = load i64, ptr %val.i, align 8
  %or61.i = or i64 %76, %shl60.i
  store i64 %or61.i, ptr %val.i, align 8
  %77 = load i64, ptr %b.i, align 8
  %cmp62.i = icmp sge i64 %77, 0
  br i1 %cmp62.i, label %if.then63.i, label %if.end64.i

if.then63.i:                                      ; preds = %if.end55.i
  br label %do.end.i

if.end64.i:                                       ; preds = %if.end55.i
  %78 = load ptr, ptr %data_.i, align 8
  %79 = load ptr, ptr %pos_.addr.i, align 8
  %80 = load i64, ptr %79, align 8
  %inc65.i = add i64 %80, 1
  store i64 %inc65.i, ptr %79, align 8
  %arrayidx66.i = getelementptr inbounds i8, ptr %78, i64 %80
  %81 = load i8, ptr %arrayidx66.i, align 1
  %conv67.i = sext i8 %81 to i64
  store i64 %conv67.i, ptr %b.i, align 8
  %82 = load i64, ptr %b.i, align 8
  %and68.i = and i64 %82, 127
  %shl69.i = shl i64 %and68.i, 49
  %83 = load i64, ptr %val.i, align 8
  %or70.i = or i64 %83, %shl69.i
  store i64 %or70.i, ptr %val.i, align 8
  %84 = load i64, ptr %b.i, align 8
  %cmp71.i = icmp sge i64 %84, 0
  br i1 %cmp71.i, label %if.then72.i, label %if.end73.i

if.then72.i:                                      ; preds = %if.end64.i
  br label %do.end.i

if.end73.i:                                       ; preds = %if.end64.i
  %85 = load ptr, ptr %data_.i, align 8
  %86 = load ptr, ptr %pos_.addr.i, align 8
  %87 = load i64, ptr %86, align 8
  %inc74.i = add i64 %87, 1
  store i64 %inc74.i, ptr %86, align 8
  %arrayidx75.i = getelementptr inbounds i8, ptr %85, i64 %87
  %88 = load i8, ptr %arrayidx75.i, align 1
  %conv76.i = sext i8 %88 to i64
  store i64 %conv76.i, ptr %b.i, align 8
  %89 = load i64, ptr %b.i, align 8
  %and77.i = and i64 %89, 127
  %shl78.i = shl i64 %and77.i, 56
  %90 = load i64, ptr %val.i, align 8
  %or79.i = or i64 %90, %shl78.i
  store i64 %or79.i, ptr %val.i, align 8
  %91 = load i64, ptr %b.i, align 8
  %cmp80.i = icmp sge i64 %91, 0
  br i1 %cmp80.i, label %if.then81.i, label %if.end82.i

if.then81.i:                                      ; preds = %if.end73.i
  br label %do.end.i

if.end82.i:                                       ; preds = %if.end73.i
  %92 = load ptr, ptr %data_.i, align 8
  %93 = load ptr, ptr %pos_.addr.i, align 8
  %94 = load i64, ptr %93, align 8
  %inc83.i = add i64 %94, 1
  store i64 %inc83.i, ptr %93, align 8
  %arrayidx84.i = getelementptr inbounds i8, ptr %92, i64 %94
  %95 = load i8, ptr %arrayidx84.i, align 1
  %conv85.i = sext i8 %95 to i64
  store i64 %conv85.i, ptr %b.i, align 8
  %96 = load i64, ptr %b.i, align 8
  %and86.i = and i64 %96, 1
  %shl87.i = shl i64 %and86.i, 63
  %97 = load i64, ptr %val.i, align 8
  %or88.i = or i64 %97, %shl87.i
  store i64 %or88.i, ptr %val.i, align 8
  %98 = load i64, ptr %b.i, align 8
  %cmp89.i = icmp sge i64 %98, 0
  br i1 %cmp89.i, label %if.then90.i, label %if.end91.i

if.then90.i:                                      ; preds = %if.end82.i
  br label %do.end.i

if.end91.i:                                       ; preds = %if.end82.i
  store i1 false, ptr %retval.i, align 1
  br label %_ZN9struct_pb8internal13decode_varintEPKcRmmS3_.exit

do.end.i:                                         ; preds = %if.then90.i, %if.then81.i, %if.then72.i, %if.then63.i, %if.then54.i, %if.then45.i, %if.then36.i, %if.then27.i, %if.then18.i, %if.then11.i
  br label %if.end111.i

if.else.i:                                        ; preds = %if.end.i
  store i32 0, ptr %shift.i, align 4
  br label %while.cond.i

while.cond.i:                                     ; preds = %while.body.i, %if.else.i
  %99 = load ptr, ptr %pos_.addr.i, align 8
  %100 = load i64, ptr %99, align 8
  %101 = load i64, ptr %size_.addr.i, align 8
  %cmp92.i = icmp ne i64 %100, %101
  br i1 %cmp92.i, label %land.rhs.i, label %land.end.i

land.rhs.i:                                       ; preds = %while.cond.i
  %102 = load ptr, ptr %data_.i, align 8
  %103 = load ptr, ptr %pos_.addr.i, align 8
  %104 = load i64, ptr %103, align 8
  %arrayidx93.i = getelementptr inbounds i8, ptr %102, i64 %104
  %105 = load i8, ptr %arrayidx93.i, align 1
  %conv94.i = sext i8 %105 to i64
  %cmp95.i = icmp slt i64 %conv94.i, 0
  br label %land.end.i

land.end.i:                                       ; preds = %land.rhs.i, %while.cond.i
  %106 = phi i1 [ false, %while.cond.i ], [ %cmp95.i, %land.rhs.i ]
  br i1 %106, label %while.body.i, label %while.end.i

while.body.i:                                     ; preds = %land.end.i
  %107 = load ptr, ptr %data_.i, align 8
  %108 = load ptr, ptr %pos_.addr.i, align 8
  %109 = load i64, ptr %108, align 8
  %inc96.i = add i64 %109, 1
  store i64 %inc96.i, ptr %108, align 8
  %arrayidx97.i = getelementptr inbounds i8, ptr %107, i64 %109
  %110 = load i8, ptr %arrayidx97.i, align 1
  %conv98.i = sext i8 %110 to i64
  %and99.i = and i64 %conv98.i, 127
  %111 = load i32, ptr %shift.i, align 4
  %sh_prom.i = zext i32 %111 to i64
  %shl100.i = shl i64 %and99.i, %sh_prom.i
  %112 = load i64, ptr %val.i, align 8
  %or101.i = or i64 %112, %shl100.i
  store i64 %or101.i, ptr %val.i, align 8
  %113 = load i32, ptr %shift.i, align 4
  %add.i = add i32 %113, 7
  store i32 %add.i, ptr %shift.i, align 4
  br label %while.cond.i, !llvm.loop !8

while.end.i:                                      ; preds = %land.end.i
  %114 = load ptr, ptr %pos_.addr.i, align 8
  %115 = load i64, ptr %114, align 8
  %116 = load i64, ptr %size_.addr.i, align 8
  %cmp102.i = icmp eq i64 %115, %116
  br i1 %cmp102.i, label %if.then103.i, label %if.end104.i

if.then103.i:                                     ; preds = %while.end.i
  store i1 false, ptr %retval.i, align 1
  br label %_ZN9struct_pb8internal13decode_varintEPKcRmmS3_.exit

if.end104.i:                                      ; preds = %while.end.i
  %117 = load ptr, ptr %data_.i, align 8
  %118 = load ptr, ptr %pos_.addr.i, align 8
  %119 = load i64, ptr %118, align 8
  %inc105.i = add i64 %119, 1
  store i64 %inc105.i, ptr %118, align 8
  %arrayidx106.i = getelementptr inbounds i8, ptr %117, i64 %119
  %120 = load i8, ptr %arrayidx106.i, align 1
  %conv107.i = sext i8 %120 to i64
  %121 = load i32, ptr %shift.i, align 4
  %sh_prom108.i = zext i32 %121 to i64
  %shl109.i = shl i64 %conv107.i, %sh_prom108.i
  %122 = load i64, ptr %val.i, align 8
  %or110.i = or i64 %122, %shl109.i
  store i64 %or110.i, ptr %val.i, align 8
  br label %if.end111.i

if.end111.i:                                      ; preds = %if.end104.i, %do.end.i
  %123 = load i64, ptr %val.i, align 8
  %124 = load ptr, ptr %v.addr.i9, align 8
  store i64 %123, ptr %124, align 8
  store i1 true, ptr %retval.i, align 1
  br label %_ZN9struct_pb8internal13decode_varintEPKcRmmS3_.exit

_ZN9struct_pb8internal13decode_varintEPKcRmmS3_.exit: ; preds = %if.end111.i, %if.then103.i, %if.end91.i, %if.then.i
  %125 = load i1, ptr %retval.i, align 1
  %frombool = zext i1 %125 to i8
  store i8 %frombool, ptr %ok, align 1
  %126 = load i8, ptr %ok, align 1
  %tobool = trunc i8 %126 to i1
  br i1 %tobool, label %if.end, label %if.then

if.then:                                          ; preds = %_ZN9struct_pb8internal13decode_varintEPKcRmmS3_.exit
  store i1 false, ptr %retval, align 1
  br label %return

if.end:                                           ; preds = %_ZN9struct_pb8internal13decode_varintEPKcRmmS3_.exit
  %127 = load i64, ptr %tag, align 8
  switch i64 %127, label %sw.default [
  ]

sw.default:                                       ; preds = %if.end
  %128 = load ptr, ptr %data.addr, align 8
  %129 = load i64, ptr %size.addr, align 8
  %130 = load i64, ptr %tag, align 8
  %conv = trunc i64 %130 to i32
  %131 = load ptr, ptr %unknown_fields.addr, align 8
  %call1 = call noundef zeroext i1 @_ZN9struct_pb8internal19deserialize_unknownEPKcRmmjRNS_13UnknownFieldsE(ptr noundef %128, ptr noundef nonnull align 8 dereferenceable(8) %pos, i64 noundef %129, i32 noundef %conv, ptr noundef nonnull align 8 dereferenceable(24) %131)
  %frombool2 = zext i1 %call1 to i8
  store i8 %frombool2, ptr %ok, align 1
  %132 = load i8, ptr %ok, align 1
  %tobool3 = trunc i8 %132 to i1
  store i1 %tobool3, ptr %retval, align 1
  br label %return

while.end:                                        ; preds = %while.cond
  store i1 true, ptr %retval, align 1
  br label %return

return:                                           ; preds = %while.end, %sw.default, %if.then
  %133 = load i1, ptr %retval, align 1
  ret i1 %133
}